target datalayout = "e-m:e-p270:32:32-p271:32:32-p272:64:64-i64:64-i128:128-f80:128-n8:16:32:64-S128"
target triple = "x86_64-pc-linux-gnu"

%struct.SDL_GPUDevice = type { ptr, ptr, ptr, ptr, ptr, ptr, ptr, ptr, ptr, ptr, ptr, ptr, ptr, ptr, ptr, ptr, ptr, ptr, ptr, ptr, ptr, ptr, ptr, ptr, ptr, ptr, ptr, ptr, ptr, ptr, ptr, ptr, ptr, ptr, ptr, ptr, ptr, ptr, ptr, ptr, ptr, ptr, ptr, ptr, ptr, ptr, ptr, ptr, ptr, ptr, ptr, ptr, ptr, ptr, ptr, ptr, ptr, ptr, ptr, ptr, ptr, ptr, ptr, ptr, ptr, ptr, ptr, ptr, ptr, ptr, ptr, ptr, ptr, ptr, ptr, ptr, ptr, ptr, ptr, ptr, ptr, ptr, ptr, ptr, ptr, i32, i8 }
%struct.CommandBufferCommonHeader = type { ptr, %struct.RenderPass, i8, %struct.Pass, i8, %struct.Pass, i8, i8, i8 }
%struct.RenderPass = type { ptr, i8, [4 x ptr], i32, ptr }
%struct.Pass = type { ptr, i8 }

@.str.4 = private unnamed_addr constant [26 x i8] c"Parameter '%s' is invalid\00", align 1
@.str.8 = private unnamed_addr constant [103 x i8] c"generated/home/dtcxzyw/WorkSpace/Projects/compilers/llvm-opt-benchmark/bench/sdl/SDL/src/gpu/SDL_gpu.c\00", align 1
@.str.274 = private unnamed_addr constant [13 x i8] c"compute_pass\00", align 1
@SDL_DispatchGPUCompute_REAL.sdl_assert_data = internal global { i8, [3 x i8], i32, ptr, ptr, i32, [4 x i8], ptr, ptr } { i8 0, [3 x i8] zeroinitializer, i32 0, ptr @.str.277, ptr null, i32 0, [4 x i8] zeroinitializer, ptr null, ptr null }, align 8
@__func__.SDL_DispatchGPUCompute_REAL = private unnamed_addr constant [28 x i8] c"SDL_DispatchGPUCompute_REAL\00", align 1
@SDL_DispatchGPUCompute_REAL.sdl_assert_data.279 = internal global { i8, [3 x i8], i32, ptr, ptr, i32, [4 x i8], ptr, ptr } { i8 0, [3 x i8] zeroinitializer, i32 0, ptr @.str.280, ptr null, i32 0, [4 x i8] zeroinitializer, ptr null, ptr null }, align 8

; Function Attrs: nounwind uwtable
define hidden void @SDL_DispatchGPUCompute_REAL(ptr noundef %0, i32 noundef %1, i32 noundef %2, i32 noundef %3) #0 {
  %5 = alloca ptr, align 8
  %6 = alloca i32, align 4
  %7 = alloca i32, align 4
  %8 = alloca i32, align 4
  %9 = alloca i32, align 4
  %10 = alloca i32, align 4
  %11 = alloca i32, align 4
  store ptr %0, ptr %5, align 8
  store i32 %1, ptr %6, align 4
  store i32 %2, ptr %7, align 4
  store i32 %3, ptr %8, align 4
  %12 = load ptr, ptr %5, align 8
  %13 = icmp eq ptr %12, null
  br i1 %13, label %14, label %16

14:                                               ; preds = %4
  %15 = call zeroext i1 (ptr, ...) @SDL_SetError_REAL(ptr noundef @.str.4, ptr noundef @.str.274)
  br label %86

16:                                               ; preds = %4
  %17 = load ptr, ptr %5, align 8
  %18 = getelementptr inbounds nuw %struct.Pass, ptr %17, i32 0, i32 0
  %19 = load ptr, ptr %18, align 8
  %20 = getelementptr inbounds nuw %struct.CommandBufferCommonHeader, ptr %19, i32 0, i32 0
  %21 = load ptr, ptr %20, align 8
  %22 = getelementptr inbounds nuw %struct.SDL_GPUDevice, ptr %21, i32 0, i32 86
  %23 = load i8, ptr %22, align 4, !range !5, !noundef !6
  %24 = trunc i8 %23 to i1
  br i1 %24, label %25, label %72

25:                                               ; preds = %16
  %26 = load ptr, ptr %5, align 8
  %27 = getelementptr inbounds nuw %struct.Pass, ptr %26, i32 0, i32 1
  %28 = load i8, ptr %27, align 8, !range !5, !noundef !6
  %29 = trunc i8 %28 to i1
  br i1 %29, label %47, label %30

30:                                               ; preds = %25
  br label %31

31:                                               ; preds = %30
  br label %32

32:                                               ; preds = %31, %43
  call void @llvm.lifetime.start.p0(i64 4, ptr %9) #6
  %33 = call i32 @SDL_ReportAssertion_REAL(ptr noundef @SDL_DispatchGPUCompute_REAL.sdl_assert_data, ptr noundef @__func__.SDL_DispatchGPUCompute_REAL, ptr noundef @.str.8, i32 noundef 2335)
  store i32 %33, ptr %9, align 4
  %34 = load i32, ptr %9, align 4
  %35 = icmp eq i32 %34, 0
  br i1 %35, label %36, label %37

36:                                               ; preds = %32
  store i32 4, ptr %10, align 4
  br label %43

37:                                               ; preds = %32
  %38 = load i32, ptr %9, align 4
  %39 = icmp eq i32 %38, 1
  br i1 %39, label %40, label %41

40:                                               ; preds = %37
  call void @llvm.debugtrap()
  br label %41

41:                                               ; preds = %40, %37
  br label %42

42:                                               ; preds = %41
  store i32 5, ptr %10, align 4
  br label %43

43:                                               ; preds = %42, %36
  call void @llvm.lifetime.end.p0(i64 4, ptr %9) #6
  %44 = load i32, ptr %10, align 4
  switch i32 %44, label %87 [
    i32 4, label %32
    i32 5, label %45
  ]

45:                                               ; preds = %43
  br label %46

46:                                               ; preds = %45
  br label %86

47:                                               ; preds = %25
  %48 = load ptr, ptr %5, align 8
  %49 = getelementptr inbounds nuw %struct.Pass, ptr %48, i32 0, i32 0
  %50 = load ptr, ptr %49, align 8
  %51 = getelementptr inbounds nuw %struct.CommandBufferCommonHeader, ptr %50, i32 0, i32 4
  %52 = load i8, ptr %51, align 8, !range !5, !noundef !6
  %53 = trunc i8 %52 to i1
  br i1 %53, label %71, label %54

54:                                               ; preds = %47
  br label %55

55:                                               ; preds = %54
  br label %56

56:                                               ; preds = %55, %67
  call void @llvm.lifetime.start.p0(i64 4, ptr %11) #6
  %57 = call i32 @SDL_ReportAssertion_REAL(ptr noundef @SDL_DispatchGPUCompute_REAL.sdl_assert_data.279, ptr noundef @__func__.SDL_DispatchGPUCompute_REAL, ptr noundef @.str.8, i32 noundef 2336)
  store i32 %57, ptr %11, align 4
  %58 = load i32, ptr %11, align 4
  %59 = icmp eq i32 %58, 0
  br i1 %59, label %60, label %61

60:                                               ; preds = %56
  store i32 8, ptr %10, align 4
  br label %67

61:                                               ; preds = %56
  %62 = load i32, ptr %11, align 4
  %63 = icmp eq i32 %62, 1
  br i1 %63, label %64, label %65

64:                                               ; preds = %61
  call void @llvm.debugtrap()
  br label %65

65:                                               ; preds = %64, %61
  br label %66

66:                                               ; preds = %65
  store i32 9, ptr %10, align 4
  br label %67

67:                                               ; preds = %66, %60
  call void @llvm.lifetime.end.p0(i64 4, ptr %11) #6
  %68 = load i32, ptr %10, align 4
  switch i32 %68, label %87 [
    i32 8, label %56
    i32 9, label %69
  ]

69:                                               ; preds = %67
  br label %70

70:                                               ; preds = %69
  br label %86

71:                                               ; preds = %47
  br label %72

72:                                               ; preds = %71, %16
  %73 = load ptr, ptr %5, align 8
  %74 = getelementptr inbounds nuw %struct.Pass, ptr %73, i32 0, i32 0
  %75 = load ptr, ptr %74, align 8
  %76 = getelementptr inbounds nuw %struct.CommandBufferCommonHeader, ptr %75, i32 0, i32 0
  %77 = load ptr, ptr %76, align 8
  %78 = getelementptr inbounds nuw %struct.SDL_GPUDevice, ptr %77, i32 0, i32 48
  %79 = load ptr, ptr %78, align 8
  %80 = load ptr, ptr %5, align 8
  %81 = getelementptr inbounds nuw %struct.Pass, ptr %80, i32 0, i32 0
  %82 = load ptr, ptr %81, align 8
  %83 = load i32, ptr %6, align 4
  %84 = load i32, ptr %7, align 4
  %85 = load i32, ptr %8, align 4
  call void %79(ptr noundef %82, i32 noundef %83, i32 noundef %84, i32 noundef %85)
  br label %86

86:                                               ; preds = %72, %70, %46, %14
  ret void

87:                                               ; preds = %67, %43
  unreachable
}