; Function Attrs: nounwind uwtable
define hidden void @SDL_DispatchGPUCompute_REAL(ptr noundef readonly captures(address_is_null) %0, i32 noundef %1, i32 noundef %2, i32 noundef %3) local_unnamed_addr #0 {
  %5 = icmp eq ptr %0, null
  br i1 %5, label %6, label %8

6:                                                ; preds = %4
  %7 = tail call zeroext i1 (ptr, ...) @SDL_SetError_REAL(ptr noundef nonnull @.str.4, ptr noundef nonnull @.str.274) #7
  br label %.thread

8:                                                ; preds = %4
  %9 = load ptr, ptr %0, align 8
  %10 = load ptr, ptr %9, align 8
  %11 = getelementptr inbounds nuw i8, ptr %10, i64 684
  %12 = load i8, ptr %11, align 4, !range !5, !noundef !6
  %13 = trunc nuw i8 %12 to i1
  br i1 %13, label %14, label %26

14:                                               ; preds = %8
  %15 = getelementptr inbounds nuw i8, ptr %0, i64 8
  %16 = load i8, ptr %15, align 8, !range !5, !noundef !6
  %17 = trunc nuw i8 %16 to i1
  br i1 %17, label %20, label %.preheader26

.preheader26:                                     ; preds = %14, %.preheader26
  %18 = tail call i32 @SDL_ReportAssertion_REAL(ptr noundef nonnull @SDL_DispatchGPUCompute_REAL.sdl_assert_data, ptr noundef nonnull @__func__.SDL_DispatchGPUCompute_REAL, ptr noundef nonnull @.str.8, i32 noundef 2335) #7
  switch i32 %18, label %.thread [
    i32 0, label %.preheader26
    i32 1, label %19
  ]

19:                                               ; preds = %.preheader26
  tail call void @llvm.debugtrap()
  br label %.thread

20:                                               ; preds = %14
  %21 = getelementptr inbounds nuw i8, ptr %9, i64 96
  %22 = load i8, ptr %21, align 8, !range !5, !noundef !6
  %23 = trunc nuw i8 %22 to i1
  br i1 %23, label %26, label %.preheader

.preheader:                                       ; preds = %20, %.preheader
  %24 = tail call i32 @SDL_ReportAssertion_REAL(ptr noundef nonnull @SDL_DispatchGPUCompute_REAL.sdl_assert_data.279, ptr noundef nonnull @__func__.SDL_DispatchGPUCompute_REAL, ptr noundef nonnull @.str.8, i32 noundef 2336) #7
  switch i32 %24, label %.thread [
    i32 0, label %.preheader
    i32 1, label %25
  ]

25:                                               ; preds = %.preheader
  tail call void @llvm.debugtrap()
  br label %.thread

26:                                               ; preds = %20, %8
  %27 = getelementptr inbounds nuw i8, ptr %10, i64 384
  %28 = load ptr, ptr %27, align 8
  tail call void %28(ptr noundef nonnull %9, i32 noundef %1, i32 noundef %2, i32 noundef %3) #7
  br label %.thread

.thread:                                          ; preds = %.preheader26, %.preheader, %25, %19, %26, %6
  ret void
}